; Function Attrs: mustprogress nofree norecurse nosync nounwind willreturn memory(read, inaccessiblemem: none) uwtable
define dso_local noundef ptr @_ZNK4llvm11NamedMDNode10getOperandEj(ptr nocapture noundef nonnull readonly align 8 dereferenceable(64) %0, i32 noundef %1) local_unnamed_addr #9 align 2 {
  %3 = getelementptr inbounds nuw i8, ptr %0, i64 56
  %4 = load ptr, ptr %3, align 8
  %5 = zext i32 %1 to i64
  %6 = load ptr, ptr %4, align 8
  %7 = getelementptr inbounds %"class.llvm::TrackingMDRef", ptr %6, i64 %5
  %8 = load ptr, ptr %7, align 8
  ret ptr %8
}